; Function Attrs: mustprogress nounwind uwtable
define dso_local noundef i32 @_ZNK4llvm13DataExtractor6getU32EPmPNS_5ErrorE(ptr noundef nonnull readonly align 8 captures(none) dereferenceable(18) %0, ptr noundef captures(none) %1, ptr noundef %2) local_unnamed_addr #0 align 2 {
  %.not.i.i = icmp eq ptr %2, null
  br i1 %.not.i.i, label %_ZL7isErrorPN4llvm5ErrorE.exit.thread.i, label %_ZL7isErrorPN4llvm5ErrorE.exit.i

_ZL7isErrorPN4llvm5ErrorE.exit.i:                 ; preds = %3
  %4 = load ptr, ptr %2, align 8
  %.not9.i = icmp eq ptr %4, null
  br i1 %.not9.i, label %_ZL7isErrorPN4llvm5ErrorE.exit.thread.i, label %_ZNK4llvm13DataExtractor4getUIjEET_PmPNS_5ErrorE.exit

_ZL7isErrorPN4llvm5ErrorE.exit.thread.i:          ; preds = %_ZL7isErrorPN4llvm5ErrorE.exit.i, %3
  %5 = load i64, ptr %1, align 8
  %6 = tail call noundef zeroext i1 @_ZNK4llvm13DataExtractor11prepareReadEmmPNS_5ErrorE(ptr noundef nonnull align 8 dereferenceable(18) %0, i64 noundef %5, i64 noundef 4, ptr noundef %2)
  br i1 %6, label %7, label %_ZNK4llvm13DataExtractor4getUIjEET_PmPNS_5ErrorE.exit

7:                                                ; preds = %_ZL7isErrorPN4llvm5ErrorE.exit.thread.i
  %8 = load ptr, ptr %0, align 8
  %9 = getelementptr inbounds i8, ptr %8, i64 %5
  %10 = load i32, ptr %9, align 1
  %11 = getelementptr inbounds nuw i8, ptr %0, i64 16
  %12 = load i8, ptr %11, align 8
  %.not.i = icmp eq i8 %12, 1
  %13 = tail call i32 @llvm.bswap.i32(i32 %10)
  %spec.select.i = select i1 %.not.i, i32 %10, i32 %13
  %14 = load i64, ptr %1, align 8
  %15 = add i64 %14, 4
  store i64 %15, ptr %1, align 8
  br label %_ZNK4llvm13DataExtractor4getUIjEET_PmPNS_5ErrorE.exit

_ZNK4llvm13DataExtractor4getUIjEET_PmPNS_5ErrorE.exit: ; preds = %_ZL7isErrorPN4llvm5ErrorE.exit.i, %_ZL7isErrorPN4llvm5ErrorE.exit.thread.i, %7
  %.0.i = phi i32 [ 0, %_ZL7isErrorPN4llvm5ErrorE.exit.i ], [ %spec.select.i, %7 ], [ 0, %_ZL7isErrorPN4llvm5ErrorE.exit.thread.i ]
  ret i32 %.0.i
}